; Function Attrs: mustprogress nounwind uwtable
define internal fastcc void @_ZN12_GLOBAL__N_111ProfileNodeclIN4llvm16itanium_demangle13FunctionParamEEEvPKT_(ptr nonnull %.0.val, i64 %.16.val, ptr %.24.val) unnamed_addr #0 align 2 {
  tail call void @_ZN4llvm16FoldingSetNodeID10AddIntegerEy(ptr noundef nonnull align 8 dereferenceable(144) %.0.val, i64 noundef 67)
  %1 = icmp eq i64 %.16.val, 0
  br i1 %1, label %2, label %3

2:                                                ; preds = %0
  tail call void @_ZN4llvm16FoldingSetNodeID9AddStringENS_9StringRefE(ptr noundef nonnull align 8 dereferenceable(144) %.0.val, ptr null, i64 0) #20
  br label %_ZNK4llvm16itanium_demangle13FunctionParam5matchIN12_GLOBAL__N_119ProfileSpecificNodeIS1_EEEEvT_.exit

3:                                                ; preds = %0
  tail call void @_ZN4llvm16FoldingSetNodeID9AddStringENS_9StringRefE(ptr noundef nonnull align 8 dereferenceable(144) %.0.val, ptr %.24.val, i64 %.16.val) #20
  br label %_ZNK4llvm16itanium_demangle13FunctionParam5matchIN12_GLOBAL__N_119ProfileSpecificNodeIS1_EEEEvT_.exit

_ZNK4llvm16itanium_demangle13FunctionParam5matchIN12_GLOBAL__N_119ProfileSpecificNodeIS1_EEEEvT_.exit: ; preds = %2, %3
  ret void
}